target datalayout = "e-m:e-p270:32:32-p271:32:32-p272:64:64-i64:64-i128:128-f80:128-n8:16:32:64-S128"
target triple = "x86_64-unknown-linux-gnu"

; Function Attrs: nounwind uwtable
define hidden i32 @mz_zip_reader_extract_file_to_callback(ptr noundef %pZip, ptr noundef %pFilename, ptr noundef %pCallback, ptr noundef %pOpaque, i32 noundef %flags) #0 {
entry:
  %retval = alloca i32, align 4
  %pZip.addr = alloca ptr, align 8
  %pFilename.addr = alloca ptr, align 8
  %pCallback.addr = alloca ptr, align 8
  %pOpaque.addr = alloca ptr, align 8
  %flags.addr = alloca i32, align 4
  %file_index = alloca i32, align 4
  store ptr %pZip, ptr %pZip.addr, align 8
  store ptr %pFilename, ptr %pFilename.addr, align 8
  store ptr %pCallback, ptr %pCallback.addr, align 8
  store ptr %pOpaque, ptr %pOpaque.addr, align 8
  store i32 %flags, ptr %flags.addr, align 4
  %0 = load ptr, ptr %pZip.addr, align 8
  %1 = load ptr, ptr %pFilename.addr, align 8
  %2 = load i32, ptr %flags.addr, align 4
  %call = call i32 @mz_zip_reader_locate_file(ptr noundef %0, ptr noundef %1, ptr noundef null, i32 noundef %2)
  store i32 %call, ptr %file_index, align 4
  %3 = load i32, ptr %file_index, align 4
  %cmp = icmp slt i32 %3, 0
  br i1 %cmp, label %if.then, label %if.end

if.then:                                          ; preds = %entry
  store i32 0, ptr %retval, align 4
  br label %return

if.end:                                           ; preds = %entry
  %4 = load ptr, ptr %pZip.addr, align 8
  %5 = load i32, ptr %file_index, align 4
  %6 = load ptr, ptr %pCallback.addr, align 8
  %7 = load ptr, ptr %pOpaque.addr, align 8
  %8 = load i32, ptr %flags.addr, align 4
  %call1 = call i32 @mz_zip_reader_extract_to_callback(ptr noundef %4, i32 noundef %5, ptr noundef %6, ptr noundef %7, i32 noundef %8)
  store i32 %call1, ptr %retval, align 4
  br label %return

return:                                           ; preds = %if.end, %if.then
  %9 = load i32, ptr %retval, align 4
  ret i32 %9
}