; Function Attrs: nounwind uwtable
define hidden range(i32 0, 2) i32 @mz_zip_reader_extract_file_to_callback(ptr noundef %pZip, ptr noundef %pFilename, ptr noundef readonly captures(none) %pCallback, ptr noundef %pOpaque, i32 noundef %flags) local_unnamed_addr #4 {
entry:
  %call = tail call i32 @mz_zip_reader_locate_file(ptr noundef %pZip, ptr noundef %pFilename, ptr noundef null, i32 noundef %flags)
  %cmp = icmp slt i32 %call, 0
  br i1 %cmp, label %return, label %if.end

if.end:                                           ; preds = %entry
  %call1 = tail call i32 @mz_zip_reader_extract_to_callback(ptr noundef %pZip, i32 noundef %call, ptr noundef %pCallback, ptr noundef %pOpaque, i32 noundef %flags)
  br label %return

return:                                           ; preds = %entry, %if.end
  %retval.0 = phi i32 [ %call1, %if.end ], [ 0, %entry ]
  ret i32 %retval.0
}